target datalayout = "e-m:e-p270:32:32-p271:32:32-p272:64:64-i64:64-i128:128-f80:128-n8:16:32:64-S128"
target triple = "x86_64-pc-linux-gnu"

%struct.dt_datetime_t = type { i32, i32, i32, i32, i32, i32, i32 }

; Function Attrs: nounwind uwtable
define ptr @dt_datetime_gdatetime_add_numbers(ptr noundef %0, ptr noundef byval(%struct.dt_datetime_t) align 8 %1, i32 noundef %2) #0 {
  %4 = alloca ptr, align 8
  %5 = alloca i32, align 4
  %6 = alloca i32, align 4
  %7 = alloca ptr, align 8
  %8 = alloca ptr, align 8
  store ptr %0, ptr %4, align 8, !tbaa !51
  store i32 %2, ptr %5, align 4, !tbaa !62
  call void @llvm.lifetime.start.p0(i64 4, ptr %6) #7
  %9 = load i32, ptr %5, align 4, !tbaa !62
  %10 = icmp ne i32 %9, 0
  %11 = select i1 %10, i32 1, i32 -1
  store i32 %11, ptr %6, align 4, !tbaa !62
  call void @llvm.lifetime.start.p0(i64 8, ptr %7) #7
  %12 = load ptr, ptr %4, align 8, !tbaa !51
  %13 = load i32, ptr %6, align 4, !tbaa !62
  %14 = getelementptr inbounds nuw %struct.dt_datetime_t, ptr %1, i32 0, i32 0
  %15 = load i32, ptr %14, align 8, !tbaa !52
  %16 = mul nsw i32 %13, %15
  %17 = call ptr @g_date_time_add_years(ptr noundef %12, i32 noundef %16)
  store ptr %17, ptr %7, align 8, !tbaa !51
  call void @llvm.lifetime.start.p0(i64 8, ptr %8) #7
  %18 = load ptr, ptr %7, align 8, !tbaa !51
  %19 = load i32, ptr %6, align 4, !tbaa !62
  %20 = getelementptr inbounds nuw %struct.dt_datetime_t, ptr %1, i32 0, i32 1
  %21 = load i32, ptr %20, align 4, !tbaa !54
  %22 = mul nsw i32 %19, %21
  %23 = call ptr @g_date_time_add_months(ptr noundef %18, i32 noundef %22)
  store ptr %23, ptr %8, align 8, !tbaa !51
  %24 = load ptr, ptr %7, align 8, !tbaa !51
  call void @g_date_time_unref(ptr noundef %24)
  %25 = load ptr, ptr %8, align 8, !tbaa !51
  %26 = load i32, ptr %6, align 4, !tbaa !62
  %27 = getelementptr inbounds nuw %struct.dt_datetime_t, ptr %1, i32 0, i32 2
  %28 = load i32, ptr %27, align 8, !tbaa !55
  %29 = mul nsw i32 %26, %28
  %30 = call ptr @g_date_time_add_days(ptr noundef %25, i32 noundef %29)
  store ptr %30, ptr %7, align 8, !tbaa !51
  %31 = load ptr, ptr %8, align 8, !tbaa !51
  call void @g_date_time_unref(ptr noundef %31)
  %32 = load ptr, ptr %7, align 8, !tbaa !51
  %33 = load i32, ptr %6, align 4, !tbaa !62
  %34 = getelementptr inbounds nuw %struct.dt_datetime_t, ptr %1, i32 0, i32 3
  %35 = load i32, ptr %34, align 4, !tbaa !56
  %36 = mul nsw i32 %33, %35
  %37 = call ptr @g_date_time_add_hours(ptr noundef %32, i32 noundef %36)
  store ptr %37, ptr %8, align 8, !tbaa !51
  %38 = load ptr, ptr %7, align 8, !tbaa !51
  call void @g_date_time_unref(ptr noundef %38)
  %39 = load ptr, ptr %8, align 8, !tbaa !51
  %40 = load i32, ptr %6, align 4, !tbaa !62
  %41 = getelementptr inbounds nuw %struct.dt_datetime_t, ptr %1, i32 0, i32 4
  %42 = load i32, ptr %41, align 8, !tbaa !57
  %43 = mul nsw i32 %40, %42
  %44 = call ptr @g_date_time_add_minutes(ptr noundef %39, i32 noundef %43)
  store ptr %44, ptr %7, align 8, !tbaa !51
  %45 = load ptr, ptr %8, align 8, !tbaa !51
  call void @g_date_time_unref(ptr noundef %45)
  %46 = load ptr, ptr %7, align 8, !tbaa !51
  %47 = load i32, ptr %6, align 4, !tbaa !62
  %48 = getelementptr inbounds nuw %struct.dt_datetime_t, ptr %1, i32 0, i32 5
  %49 = load i32, ptr %48, align 4, !tbaa !58
  %50 = mul nsw i32 %47, %49
  %51 = sitofp i32 %50 to double
  %52 = call ptr @g_date_time_add_seconds(ptr noundef %46, double noundef %51)
  store ptr %52, ptr %8, align 8, !tbaa !51
  %53 = load ptr, ptr %7, align 8, !tbaa !51
  call void @g_date_time_unref(ptr noundef %53)
  %54 = load ptr, ptr %8, align 8, !tbaa !51
  call void @llvm.lifetime.end.p0(i64 8, ptr %8) #7
  call void @llvm.lifetime.end.p0(i64 8, ptr %7) #7
  call void @llvm.lifetime.end.p0(i64 4, ptr %6) #7
  ret ptr %54
}