; Function Attrs: nounwind uwtable
define ptr @dt_datetime_gdatetime_add_numbers(ptr noundef %0, ptr noundef readonly byval(%struct.dt_datetime_t) align 8 captures(none) %1, i32 noundef %2) local_unnamed_addr #0 {
  %.not = icmp eq i32 %2, 0
  %4 = select i1 %.not, i32 -1, i32 1
  %5 = load i32, ptr %1, align 8, !tbaa !49
  %6 = mul nsw i32 %5, %4
  %7 = tail call ptr @g_date_time_add_years(ptr noundef %0, i32 noundef %6) #7
  %8 = getelementptr inbounds nuw i8, ptr %1, i64 4
  %9 = load i32, ptr %8, align 4, !tbaa !51
  %10 = mul nsw i32 %9, %4
  %11 = tail call ptr @g_date_time_add_months(ptr noundef %7, i32 noundef %10) #7
  tail call void @g_date_time_unref(ptr noundef %7) #7
  %12 = getelementptr inbounds nuw i8, ptr %1, i64 8
  %13 = load i32, ptr %12, align 8, !tbaa !52
  %14 = mul nsw i32 %13, %4
  %15 = tail call ptr @g_date_time_add_days(ptr noundef %11, i32 noundef %14) #7
  tail call void @g_date_time_unref(ptr noundef %11) #7
  %16 = getelementptr inbounds nuw i8, ptr %1, i64 12
  %17 = load i32, ptr %16, align 4, !tbaa !53
  %18 = mul nsw i32 %17, %4
  %19 = tail call ptr @g_date_time_add_hours(ptr noundef %15, i32 noundef %18) #7
  tail call void @g_date_time_unref(ptr noundef %15) #7
  %20 = getelementptr inbounds nuw i8, ptr %1, i64 16
  %21 = load i32, ptr %20, align 8, !tbaa !54
  %22 = mul nsw i32 %21, %4
  %23 = tail call ptr @g_date_time_add_minutes(ptr noundef %19, i32 noundef %22) #7
  tail call void @g_date_time_unref(ptr noundef %19) #7
  %24 = getelementptr inbounds nuw i8, ptr %1, i64 20
  %25 = load i32, ptr %24, align 4, !tbaa !55
  %26 = mul nsw i32 %25, %4
  %27 = sitofp i32 %26 to double
  %28 = tail call ptr @g_date_time_add_seconds(ptr noundef %23, double noundef %27) #7
  tail call void @g_date_time_unref(ptr noundef %23) #7
  ret ptr %28
}